; Function Attrs: mustprogress uwtable
define void @_ZNK10PacketList7drawRowEP8QPainterRK20QStyleOptionViewItemRK11QModelIndex(ptr noundef nonnull align 8 dereferenceable(464) %0, ptr noundef %1, ptr noundef nonnull align 8 dereferenceable(208) %2, ptr noundef nonnull align 8 dereferenceable(24) %3) unnamed_addr #0 align 2 {
  %5 = alloca %class.QLine, align 4
  %6 = alloca %class.QColor, align 4
  tail call void @_ZNK9QTreeView7drawRowEP8QPainterRK20QStyleOptionViewItemRK11QModelIndex(ptr noundef nonnull align 8 dereferenceable(40) %0, ptr noundef %1, ptr noundef nonnull align 8 dereferenceable(208) %2, ptr noundef nonnull align 8 dereferenceable(24) %3)
  %7 = load i32, ptr getelementptr inbounds (%struct._e_prefs, ptr @prefs, i64 0, i32 89), align 4
  %.not = icmp eq i32 %7, 0
  br i1 %.not, label %25, label %8

8:                                                ; preds = %4
  %9 = load ptr, ptr %0, align 8
  %10 = getelementptr inbounds i8, ptr %9, i64 480
  %11 = load ptr, ptr %10, align 8
  %12 = tail call { i64, i64 } %11(ptr noundef nonnull align 8 dereferenceable(40) %0, ptr noundef nonnull align 8 dereferenceable(24) %3)
  %13 = extractvalue { i64, i64 } %12, 1
  %.sroa.6.8.extract.shift = lshr i64 %13, 32
  %.sroa.6.8.extract.trunc = trunc i64 %.sroa.6.8.extract.shift to i32
  call void @_ZN6QColorC1EN2Qt11GlobalColorE(ptr noundef nonnull align 4 dereferenceable(14) %6, i32 noundef 3) #20
  call void @_ZN8QPainter6setPenERK6QColor(ptr noundef nonnull align 8 dereferenceable(8) %1, ptr noundef nonnull align 4 dereferenceable(14) %6)
  %14 = getelementptr inbounds i8, ptr %0, i64 32
  %15 = load ptr, ptr %14, align 8
  %16 = getelementptr inbounds i8, ptr %15, i64 20
  %17 = getelementptr inbounds i8, ptr %15, i64 28
  %18 = load i32, ptr %17, align 4
  %19 = load i32, ptr %16, align 4
  %20 = add i32 %18, 1
  %21 = sub i32 %20, %19
  call void @llvm.lifetime.start.p0(i64 16, ptr nonnull %5)
  store i32 0, ptr %5, align 4
  %22 = getelementptr inbounds i8, ptr %5, i64 4
  store i32 %.sroa.6.8.extract.trunc, ptr %22, align 4
  %23 = getelementptr inbounds i8, ptr %5, i64 8
  store i32 %21, ptr %23, align 4
  %24 = getelementptr inbounds i8, ptr %5, i64 12
  store i32 %.sroa.6.8.extract.trunc, ptr %24, align 4
  call void @_ZN8QPainter9drawLinesEPK5QLinei(ptr noundef nonnull align 8 dereferenceable(8) %1, ptr noundef nonnull %5, i32 noundef 1)
  call void @llvm.lifetime.end.p0(i64 16, ptr nonnull %5)
  br label %25

25:                                               ; preds = %8, %4
  ret void
}